target datalayout = "e-m:e-p270:32:32-p271:32:32-p272:64:64-i64:64-i128:128-f80:128-n8:16:32:64-S128"
target triple = "x86_64-pc-linux-gnu"

%struct.Qureg = type { i32, i32, i32, i64, i64, i32, i32, %struct.ComplexArray, %struct.ComplexArray, %struct.ComplexArray, ptr, ptr, ptr, ptr, ptr, ptr }
%struct.ComplexArray = type { ptr, ptr }

; Function Attrs: nounwind uwtable
define double @calcTotalProb(ptr noundef byval(%struct.Qureg) align 8 %0) #0 {
  %2 = alloca double, align 8
  %3 = getelementptr inbounds nuw %struct.Qureg, ptr %0, i32 0, i32 0
  %4 = load i32, ptr %3, align 8, !tbaa !13
  %5 = icmp ne i32 %4, 0
  br i1 %5, label %6, label %8

6:                                                ; preds = %1
  %7 = call double @densmatr_calcTotalProb(ptr noundef byval(%struct.Qureg) align 8 %0)
  store double %7, ptr %2, align 8
  br label %10

8:                                                ; preds = %1
  %9 = call double @statevec_calcTotalProb(ptr noundef byval(%struct.Qureg) align 8 %0)
  store double %9, ptr %2, align 8
  br label %10

10:                                               ; preds = %8, %6
  %11 = load double, ptr %2, align 8
  ret double %11
}