; Function Attrs: nounwind uwtable
define double @calcTotalProb(ptr noundef readonly byval(%struct.Qureg) align 8 captures(none) %0) local_unnamed_addr #0 {
  %2 = load i32, ptr %0, align 8, !tbaa !12
  %.not = icmp eq i32 %2, 0
  br i1 %.not, label %5, label %3

3:                                                ; preds = %1
  %4 = tail call double @densmatr_calcTotalProb(ptr noundef nonnull byval(%struct.Qureg) align 8 %0) #17
  br label %7

5:                                                ; preds = %1
  %6 = tail call double @statevec_calcTotalProb(ptr noundef nonnull byval(%struct.Qureg) align 8 %0) #17
  br label %7

7:                                                ; preds = %5, %3
  %.0 = phi double [ %4, %3 ], [ %6, %5 ]
  ret double %.0
}